target datalayout = "e-m:e-p270:32:32-p271:32:32-p272:64:64-i64:64-i128:128-f80:128-n8:16:32:64-S128"
target triple = "x86_64-pc-linux-gnu"

%struct.GeoHashBits = type { i64, i8 }
%struct.GeoHashNeighbors = type { %struct.GeoHashBits, %struct.GeoHashBits, %struct.GeoHashBits, %struct.GeoHashBits, %struct.GeoHashBits, %struct.GeoHashBits, %struct.GeoHashBits, %struct.GeoHashBits }

; Function Attrs: nounwind uwtable
define internal void @geohash_move_y(ptr noundef %0, i8 noundef signext %1) #0 {
  %3 = alloca ptr, align 8
  %4 = alloca i8, align 1
  %5 = alloca i64, align 8
  %6 = alloca i64, align 8
  %7 = alloca i64, align 8
  store ptr %0, ptr %3, align 8, !tbaa !5
  store i8 %1, ptr %4, align 1, !tbaa !14
  %8 = load i8, ptr %4, align 1, !tbaa !14
  %9 = sext i8 %8 to i32
  %10 = icmp eq i32 %9, 0
  br i1 %10, label %11, label %12

11:                                               ; preds = %2
  br label %61

12:                                               ; preds = %2
  call void @llvm.lifetime.start.p0(i64 8, ptr %5) #6
  %13 = load ptr, ptr %3, align 8, !tbaa !5
  %14 = getelementptr inbounds nuw %struct.GeoHashBits, ptr %13, i32 0, i32 0
  %15 = load i64, ptr %14, align 8, !tbaa !15
  %16 = and i64 %15, -6148914691236517206
  store i64 %16, ptr %5, align 8, !tbaa !21
  call void @llvm.lifetime.start.p0(i64 8, ptr %6) #6
  %17 = load ptr, ptr %3, align 8, !tbaa !5
  %18 = getelementptr inbounds nuw %struct.GeoHashBits, ptr %17, i32 0, i32 0
  %19 = load i64, ptr %18, align 8, !tbaa !15
  %20 = and i64 %19, 6148914691236517205
  store i64 %20, ptr %6, align 8, !tbaa !21
  call void @llvm.lifetime.start.p0(i64 8, ptr %7) #6
  %21 = load ptr, ptr %3, align 8, !tbaa !5
  %22 = getelementptr inbounds nuw %struct.GeoHashBits, ptr %21, i32 0, i32 1
  %23 = load i8, ptr %22, align 8, !tbaa !18
  %24 = zext i8 %23 to i32
  %25 = mul nsw i32 %24, 2
  %26 = sub nsw i32 64, %25
  %27 = zext i32 %26 to i64
  %28 = lshr i64 -6148914691236517206, %27
  store i64 %28, ptr %7, align 8, !tbaa !21
  %29 = load i8, ptr %4, align 1, !tbaa !14
  %30 = sext i8 %29 to i32
  %31 = icmp sgt i32 %30, 0
  br i1 %31, label %32, label %37

32:                                               ; preds = %12
  %33 = load i64, ptr %6, align 8, !tbaa !21
  %34 = load i64, ptr %7, align 8, !tbaa !21
  %35 = add i64 %34, 1
  %36 = add i64 %33, %35
  store i64 %36, ptr %6, align 8, !tbaa !21
  br label %45

37:                                               ; preds = %12
  %38 = load i64, ptr %6, align 8, !tbaa !21
  %39 = load i64, ptr %7, align 8, !tbaa !21
  %40 = or i64 %38, %39
  store i64 %40, ptr %6, align 8, !tbaa !21
  %41 = load i64, ptr %6, align 8, !tbaa !21
  %42 = load i64, ptr %7, align 8, !tbaa !21
  %43 = add i64 %42, 1
  %44 = sub i64 %41, %43
  store i64 %44, ptr %6, align 8, !tbaa !21
  br label %45

45:                                               ; preds = %37, %32
  %46 = load ptr, ptr %3, align 8, !tbaa !5
  %47 = getelementptr inbounds nuw %struct.GeoHashBits, ptr %46, i32 0, i32 1
  %48 = load i8, ptr %47, align 8, !tbaa !18
  %49 = zext i8 %48 to i32
  %50 = mul nsw i32 %49, 2
  %51 = sub nsw i32 64, %50
  %52 = zext i32 %51 to i64
  %53 = lshr i64 6148914691236517205, %52
  %54 = load i64, ptr %6, align 8, !tbaa !21
  %55 = and i64 %54, %53
  store i64 %55, ptr %6, align 8, !tbaa !21
  %56 = load i64, ptr %5, align 8, !tbaa !21
  %57 = load i64, ptr %6, align 8, !tbaa !21
  %58 = or i64 %56, %57
  %59 = load ptr, ptr %3, align 8, !tbaa !5
  %60 = getelementptr inbounds nuw %struct.GeoHashBits, ptr %59, i32 0, i32 0
  store i64 %58, ptr %60, align 8, !tbaa !15
  call void @llvm.lifetime.end.p0(i64 8, ptr %7) #6
  call void @llvm.lifetime.end.p0(i64 8, ptr %6) #6
  call void @llvm.lifetime.end.p0(i64 8, ptr %5) #6
  br label %61

61:                                               ; preds = %45, %11
  ret void
}

; Function Attrs: nounwind uwtable
define internal void @geohash_move_x(ptr noundef %0, i8 noundef signext %1) #0 {
  %3 = alloca ptr, align 8
  %4 = alloca i8, align 1
  %5 = alloca i64, align 8
  %6 = alloca i64, align 8
  %7 = alloca i64, align 8
  store ptr %0, ptr %3, align 8, !tbaa !5
  store i8 %1, ptr %4, align 1, !tbaa !14
  %8 = load i8, ptr %4, align 1, !tbaa !14
  %9 = sext i8 %8 to i32
  %10 = icmp eq i32 %9, 0
  br i1 %10, label %11, label %12

11:                                               ; preds = %2
  br label %61

12:                                               ; preds = %2
  call void @llvm.lifetime.start.p0(i64 8, ptr %5) #6
  %13 = load ptr, ptr %3, align 8, !tbaa !5
  %14 = getelementptr inbounds nuw %struct.GeoHashBits, ptr %13, i32 0, i32 0
  %15 = load i64, ptr %14, align 8, !tbaa !15
  %16 = and i64 %15, -6148914691236517206
  store i64 %16, ptr %5, align 8, !tbaa !21
  call void @llvm.lifetime.start.p0(i64 8, ptr %6) #6
  %17 = load ptr, ptr %3, align 8, !tbaa !5
  %18 = getelementptr inbounds nuw %struct.GeoHashBits, ptr %17, i32 0, i32 0
  %19 = load i64, ptr %18, align 8, !tbaa !15
  %20 = and i64 %19, 6148914691236517205
  store i64 %20, ptr %6, align 8, !tbaa !21
  call void @llvm.lifetime.start.p0(i64 8, ptr %7) #6
  %21 = load ptr, ptr %3, align 8, !tbaa !5
  %22 = getelementptr inbounds nuw %struct.GeoHashBits, ptr %21, i32 0, i32 1
  %23 = load i8, ptr %22, align 8, !tbaa !18
  %24 = zext i8 %23 to i32
  %25 = mul nsw i32 %24, 2
  %26 = sub nsw i32 64, %25
  %27 = zext i32 %26 to i64
  %28 = lshr i64 6148914691236517205, %27
  store i64 %28, ptr %7, align 8, !tbaa !21
  %29 = load i8, ptr %4, align 1, !tbaa !14
  %30 = sext i8 %29 to i32
  %31 = icmp sgt i32 %30, 0
  br i1 %31, label %32, label %37

32:                                               ; preds = %12
  %33 = load i64, ptr %5, align 8, !tbaa !21
  %34 = load i64, ptr %7, align 8, !tbaa !21
  %35 = add i64 %34, 1
  %36 = add i64 %33, %35
  store i64 %36, ptr %5, align 8, !tbaa !21
  br label %45

37:                                               ; preds = %12
  %38 = load i64, ptr %5, align 8, !tbaa !21
  %39 = load i64, ptr %7, align 8, !tbaa !21
  %40 = or i64 %38, %39
  store i64 %40, ptr %5, align 8, !tbaa !21
  %41 = load i64, ptr %5, align 8, !tbaa !21
  %42 = load i64, ptr %7, align 8, !tbaa !21
  %43 = add i64 %42, 1
  %44 = sub i64 %41, %43
  store i64 %44, ptr %5, align 8, !tbaa !21
  br label %45

45:                                               ; preds = %37, %32
  %46 = load ptr, ptr %3, align 8, !tbaa !5
  %47 = getelementptr inbounds nuw %struct.GeoHashBits, ptr %46, i32 0, i32 1
  %48 = load i8, ptr %47, align 8, !tbaa !18
  %49 = zext i8 %48 to i32
  %50 = mul nsw i32 %49, 2
  %51 = sub nsw i32 64, %50
  %52 = zext i32 %51 to i64
  %53 = lshr i64 -6148914691236517206, %52
  %54 = load i64, ptr %5, align 8, !tbaa !21
  %55 = and i64 %54, %53
  store i64 %55, ptr %5, align 8, !tbaa !21
  %56 = load i64, ptr %5, align 8, !tbaa !21
  %57 = load i64, ptr %6, align 8, !tbaa !21
  %58 = or i64 %56, %57
  %59 = load ptr, ptr %3, align 8, !tbaa !5
  %60 = getelementptr inbounds nuw %struct.GeoHashBits, ptr %59, i32 0, i32 0
  store i64 %58, ptr %60, align 8, !tbaa !15
  call void @llvm.lifetime.end.p0(i64 8, ptr %7) #6
  call void @llvm.lifetime.end.p0(i64 8, ptr %6) #6
  call void @llvm.lifetime.end.p0(i64 8, ptr %5) #6
  br label %61

61:                                               ; preds = %45, %11
  ret void
}

; Function Attrs: nounwind uwtable
define dso_local void @geohashNeighbors(ptr noundef %0, ptr noundef %1) #0 {
  %3 = alloca ptr, align 8
  %4 = alloca ptr, align 8
  store ptr %0, ptr %3, align 8, !tbaa !5
  store ptr %1, ptr %4, align 8, !tbaa !5
  %5 = load ptr, ptr %4, align 8, !tbaa !5
  %6 = getelementptr inbounds nuw %struct.GeoHashNeighbors, ptr %5, i32 0, i32 1
  %7 = load ptr, ptr %3, align 8, !tbaa !5
  call void @llvm.memcpy.p0.p0.i64(ptr align 8 %6, ptr align 8 %7, i64 16, i1 false), !tbaa.struct !22
  %8 = load ptr, ptr %4, align 8, !tbaa !5
  %9 = getelementptr inbounds nuw %struct.GeoHashNeighbors, ptr %8, i32 0, i32 2
  %10 = load ptr, ptr %3, align 8, !tbaa !5
  call void @llvm.memcpy.p0.p0.i64(ptr align 8 %9, ptr align 8 %10, i64 16, i1 false), !tbaa.struct !22
  %11 = load ptr, ptr %4, align 8, !tbaa !5
  %12 = getelementptr inbounds nuw %struct.GeoHashNeighbors, ptr %11, i32 0, i32 0
  %13 = load ptr, ptr %3, align 8, !tbaa !5
  call void @llvm.memcpy.p0.p0.i64(ptr align 8 %12, ptr align 8 %13, i64 16, i1 false), !tbaa.struct !22
  %14 = load ptr, ptr %4, align 8, !tbaa !5
  %15 = getelementptr inbounds nuw %struct.GeoHashNeighbors, ptr %14, i32 0, i32 3
  %16 = load ptr, ptr %3, align 8, !tbaa !5
  call void @llvm.memcpy.p0.p0.i64(ptr align 8 %15, ptr align 8 %16, i64 16, i1 false), !tbaa.struct !22
  %17 = load ptr, ptr %4, align 8, !tbaa !5
  %18 = getelementptr inbounds nuw %struct.GeoHashNeighbors, ptr %17, i32 0, i32 5
  %19 = load ptr, ptr %3, align 8, !tbaa !5
  call void @llvm.memcpy.p0.p0.i64(ptr align 8 %18, ptr align 8 %19, i64 16, i1 false), !tbaa.struct !22
  %20 = load ptr, ptr %4, align 8, !tbaa !5
  %21 = getelementptr inbounds nuw %struct.GeoHashNeighbors, ptr %20, i32 0, i32 7
  %22 = load ptr, ptr %3, align 8, !tbaa !5
  call void @llvm.memcpy.p0.p0.i64(ptr align 8 %21, ptr align 8 %22, i64 16, i1 false), !tbaa.struct !22
  %23 = load ptr, ptr %4, align 8, !tbaa !5
  %24 = getelementptr inbounds nuw %struct.GeoHashNeighbors, ptr %23, i32 0, i32 4
  %25 = load ptr, ptr %3, align 8, !tbaa !5
  call void @llvm.memcpy.p0.p0.i64(ptr align 8 %24, ptr align 8 %25, i64 16, i1 false), !tbaa.struct !22
  %26 = load ptr, ptr %4, align 8, !tbaa !5
  %27 = getelementptr inbounds nuw %struct.GeoHashNeighbors, ptr %26, i32 0, i32 6
  %28 = load ptr, ptr %3, align 8, !tbaa !5
  call void @llvm.memcpy.p0.p0.i64(ptr align 8 %27, ptr align 8 %28, i64 16, i1 false), !tbaa.struct !22
  %29 = load ptr, ptr %4, align 8, !tbaa !5
  %30 = getelementptr inbounds nuw %struct.GeoHashNeighbors, ptr %29, i32 0, i32 1
  call void @geohash_move_x(ptr noundef %30, i8 noundef signext 1)
  %31 = load ptr, ptr %4, align 8, !tbaa !5
  %32 = getelementptr inbounds nuw %struct.GeoHashNeighbors, ptr %31, i32 0, i32 1
  call void @geohash_move_y(ptr noundef %32, i8 noundef signext 0)
  %33 = load ptr, ptr %4, align 8, !tbaa !5
  %34 = getelementptr inbounds nuw %struct.GeoHashNeighbors, ptr %33, i32 0, i32 2
  call void @geohash_move_x(ptr noundef %34, i8 noundef signext -1)
  %35 = load ptr, ptr %4, align 8, !tbaa !5
  %36 = getelementptr inbounds nuw %struct.GeoHashNeighbors, ptr %35, i32 0, i32 2
  call void @geohash_move_y(ptr noundef %36, i8 noundef signext 0)
  %37 = load ptr, ptr %4, align 8, !tbaa !5
  %38 = getelementptr inbounds nuw %struct.GeoHashNeighbors, ptr %37, i32 0, i32 3
  call void @geohash_move_x(ptr noundef %38, i8 noundef signext 0)
  %39 = load ptr, ptr %4, align 8, !tbaa !5
  %40 = getelementptr inbounds nuw %struct.GeoHashNeighbors, ptr %39, i32 0, i32 3
  call void @geohash_move_y(ptr noundef %40, i8 noundef signext -1)
  %41 = load ptr, ptr %4, align 8, !tbaa !5
  %42 = getelementptr inbounds nuw %struct.GeoHashNeighbors, ptr %41, i32 0, i32 0
  call void @geohash_move_x(ptr noundef %42, i8 noundef signext 0)
  %43 = load ptr, ptr %4, align 8, !tbaa !5
  %44 = getelementptr inbounds nuw %struct.GeoHashNeighbors, ptr %43, i32 0, i32 0
  call void @geohash_move_y(ptr noundef %44, i8 noundef signext 1)
  %45 = load ptr, ptr %4, align 8, !tbaa !5
  %46 = getelementptr inbounds nuw %struct.GeoHashNeighbors, ptr %45, i32 0, i32 6
  call void @geohash_move_x(ptr noundef %46, i8 noundef signext -1)
  %47 = load ptr, ptr %4, align 8, !tbaa !5
  %48 = getelementptr inbounds nuw %struct.GeoHashNeighbors, ptr %47, i32 0, i32 6
  call void @geohash_move_y(ptr noundef %48, i8 noundef signext 1)
  %49 = load ptr, ptr %4, align 8, !tbaa !5
  %50 = getelementptr inbounds nuw %struct.GeoHashNeighbors, ptr %49, i32 0, i32 4
  call void @geohash_move_x(ptr noundef %50, i8 noundef signext 1)
  %51 = load ptr, ptr %4, align 8, !tbaa !5
  %52 = getelementptr inbounds nuw %struct.GeoHashNeighbors, ptr %51, i32 0, i32 4
  call void @geohash_move_y(ptr noundef %52, i8 noundef signext 1)
  %53 = load ptr, ptr %4, align 8, !tbaa !5
  %54 = getelementptr inbounds nuw %struct.GeoHashNeighbors, ptr %53, i32 0, i32 5
  call void @geohash_move_x(ptr noundef %54, i8 noundef signext 1)
  %55 = load ptr, ptr %4, align 8, !tbaa !5
  %56 = getelementptr inbounds nuw %struct.GeoHashNeighbors, ptr %55, i32 0, i32 5
  call void @geohash_move_y(ptr noundef %56, i8 noundef signext -1)
  %57 = load ptr, ptr %4, align 8, !tbaa !5
  %58 = getelementptr inbounds nuw %struct.GeoHashNeighbors, ptr %57, i32 0, i32 7
  call void @geohash_move_x(ptr noundef %58, i8 noundef signext -1)
  %59 = load ptr, ptr %4, align 8, !tbaa !5
  %60 = getelementptr inbounds nuw %struct.GeoHashNeighbors, ptr %59, i32 0, i32 7
  call void @geohash_move_y(ptr noundef %60, i8 noundef signext -1)
  ret void
}