; Function Attrs: mustprogress nofree norecurse nosync nounwind willreturn memory(argmem: readwrite) uwtable
define dso_local void @geohashNeighbors(ptr noundef readonly captures(none) %0, ptr noundef captures(none) initializes((0, 128)) %1) local_unnamed_addr #1 {
  %3 = getelementptr inbounds nuw i8, ptr %1, i64 16
  tail call void @llvm.memcpy.p0.p0.i64(ptr noundef nonnull align 8 dereferenceable(16) %3, ptr noundef nonnull align 8 dereferenceable(16) %0, i64 16, i1 false), !tbaa.struct !23
  %4 = getelementptr inbounds nuw i8, ptr %1, i64 32
  tail call void @llvm.memcpy.p0.p0.i64(ptr noundef nonnull align 8 dereferenceable(16) %4, ptr noundef nonnull align 8 dereferenceable(16) %0, i64 16, i1 false), !tbaa.struct !23
  tail call void @llvm.memcpy.p0.p0.i64(ptr noundef nonnull align 8 dereferenceable(16) %1, ptr noundef nonnull align 8 dereferenceable(16) %0, i64 16, i1 false), !tbaa.struct !23
  %5 = getelementptr inbounds nuw i8, ptr %1, i64 48
  tail call void @llvm.memcpy.p0.p0.i64(ptr noundef nonnull align 8 dereferenceable(16) %5, ptr noundef nonnull align 8 dereferenceable(16) %0, i64 16, i1 false), !tbaa.struct !23
  %6 = getelementptr inbounds nuw i8, ptr %1, i64 80
  tail call void @llvm.memcpy.p0.p0.i64(ptr noundef nonnull align 8 dereferenceable(16) %6, ptr noundef nonnull align 8 dereferenceable(16) %0, i64 16, i1 false), !tbaa.struct !23
  %7 = getelementptr inbounds nuw i8, ptr %1, i64 112
  tail call void @llvm.memcpy.p0.p0.i64(ptr noundef nonnull align 8 dereferenceable(16) %7, ptr noundef nonnull align 8 dereferenceable(16) %0, i64 16, i1 false), !tbaa.struct !23
  %8 = getelementptr inbounds nuw i8, ptr %1, i64 64
  tail call void @llvm.memcpy.p0.p0.i64(ptr noundef nonnull align 8 dereferenceable(16) %8, ptr noundef nonnull align 8 dereferenceable(16) %0, i64 16, i1 false), !tbaa.struct !23
  %9 = getelementptr inbounds nuw i8, ptr %1, i64 96
  tail call void @llvm.memcpy.p0.p0.i64(ptr noundef nonnull align 8 dereferenceable(16) %9, ptr noundef nonnull align 8 dereferenceable(16) %0, i64 16, i1 false), !tbaa.struct !23
  %10 = load i64, ptr %3, align 8, !tbaa !11
  %11 = and i64 %10, -6148914691236517206
  %12 = and i64 %10, 6148914691236517205
  %13 = getelementptr inbounds nuw i8, ptr %1, i64 24
  %14 = load i8, ptr %13, align 8, !tbaa !14
  %15 = zext i8 %14 to i64
  %16 = shl nuw nsw i64 %15, 1
  %17 = sub nsw i64 64, %16
  %18 = and i64 %17, 4294967294
  %19 = lshr i64 6148914691236517205, %18
  %20 = or disjoint i64 %11, 1
  %21 = add i64 %20, %19
  %22 = lshr i64 -6148914691236517206, %18
  %23 = and i64 %21, %22
  %24 = or disjoint i64 %23, %12
  store i64 %24, ptr %3, align 8, !tbaa !11
  %25 = load i64, ptr %4, align 8, !tbaa !11
  %26 = and i64 %25, -6148914691236517206
  %27 = and i64 %25, 6148914691236517205
  %28 = getelementptr inbounds nuw i8, ptr %1, i64 40
  %29 = load i8, ptr %28, align 8, !tbaa !14
  %30 = zext i8 %29 to i64
  %31 = shl nuw nsw i64 %30, 1
  %32 = sub nsw i64 64, %31
  %33 = and i64 %32, 4294967294
  %34 = lshr i64 6148914691236517205, %33
  %35 = or disjoint i64 %34, %26
  %.neg.i = ashr i64 -6148914691236517206, %33
  %36 = add i64 %35, %.neg.i
  %37 = lshr i64 -6148914691236517206, %33
  %38 = and i64 %36, %37
  %39 = or disjoint i64 %38, %27
  store i64 %39, ptr %4, align 8, !tbaa !11
  %40 = load i64, ptr %5, align 8, !tbaa !11
  %41 = and i64 %40, -6148914691236517206
  %42 = and i64 %40, 6148914691236517205
  %43 = getelementptr inbounds nuw i8, ptr %1, i64 56
  %44 = load i8, ptr %43, align 8, !tbaa !14
  %45 = zext i8 %44 to i64
  %46 = shl nuw nsw i64 %45, 1
  %47 = sub nsw i64 64, %46
  %48 = and i64 %47, 4294967294
  %49 = add nuw i64 %42, 9223372036854775807
  %50 = lshr i64 6148914691236517205, %48
  %51 = and i64 %50, %49
  %52 = or disjoint i64 %51, %41
  store i64 %52, ptr %5, align 8, !tbaa !11
  %53 = load i64, ptr %1, align 8, !tbaa !11
  %54 = and i64 %53, -6148914691236517206
  %55 = and i64 %53, 6148914691236517205
  %56 = getelementptr inbounds nuw i8, ptr %1, i64 8
  %57 = load i8, ptr %56, align 8, !tbaa !14
  %58 = zext i8 %57 to i64
  %59 = shl nuw nsw i64 %58, 1
  %60 = sub nsw i64 64, %59
  %61 = and i64 %60, 4294967294
  %62 = lshr i64 -6148914691236517206, %61
  %63 = add nuw nsw i64 %55, 1
  %64 = add i64 %63, %62
  %65 = lshr i64 6148914691236517205, %61
  %66 = and i64 %64, %65
  %67 = or disjoint i64 %66, %54
  store i64 %67, ptr %1, align 8, !tbaa !11
  %68 = load i64, ptr %9, align 8, !tbaa !11
  %69 = and i64 %68, -6148914691236517206
  %70 = getelementptr inbounds nuw i8, ptr %1, i64 104
  %71 = load i8, ptr %70, align 8, !tbaa !14
  %72 = zext i8 %71 to i64
  %73 = shl nuw nsw i64 %72, 1
  %74 = sub nsw i64 64, %73
  %75 = and i64 %74, 4294967294
  %76 = lshr i64 6148914691236517205, %75
  %77 = or disjoint i64 %76, %69
  %.neg.i32 = ashr i64 -6148914691236517206, %75
  %78 = add i64 %77, %.neg.i32
  %79 = lshr i64 -6148914691236517206, %75
  %80 = and i64 %78, %79
  %81 = and i64 %68, 6148914691236517205
  %82 = add nuw nsw i64 %81, 1
  %83 = add i64 %82, %79
  %84 = and i64 %83, %76
  %85 = or disjoint i64 %80, %84
  store i64 %85, ptr %9, align 8, !tbaa !11
  %86 = load i64, ptr %8, align 8, !tbaa !11
  %87 = and i64 %86, -6148914691236517206
  %88 = getelementptr inbounds nuw i8, ptr %1, i64 72
  %89 = load i8, ptr %88, align 8, !tbaa !14
  %90 = zext i8 %89 to i64
  %91 = shl nuw nsw i64 %90, 1
  %92 = sub nsw i64 64, %91
  %93 = and i64 %92, 4294967294
  %94 = lshr i64 6148914691236517205, %93
  %95 = or disjoint i64 %87, 1
  %96 = add i64 %95, %94
  %97 = lshr i64 -6148914691236517206, %93
  %98 = and i64 %96, %97
  %99 = and i64 %86, 6148914691236517205
  %100 = add nuw nsw i64 %99, 1
  %101 = add i64 %100, %97
  %102 = and i64 %101, %94
  %103 = or disjoint i64 %102, %98
  store i64 %103, ptr %8, align 8, !tbaa !11
  %104 = load i64, ptr %6, align 8, !tbaa !11
  %105 = and i64 %104, -6148914691236517206
  %106 = getelementptr inbounds nuw i8, ptr %1, i64 88
  %107 = load i8, ptr %106, align 8, !tbaa !14
  %108 = zext i8 %107 to i64
  %109 = shl nuw nsw i64 %108, 1
  %110 = sub nsw i64 64, %109
  %111 = and i64 %110, 4294967294
  %112 = lshr i64 6148914691236517205, %111
  %113 = or disjoint i64 %105, 1
  %114 = add i64 %113, %112
  %115 = lshr i64 -6148914691236517206, %111
  %116 = and i64 %114, %115
  %117 = and i64 %104, 6148914691236517205
  %118 = add nuw i64 %117, 9223372036854775807
  %119 = and i64 %112, %118
  %120 = or disjoint i64 %116, %119
  store i64 %120, ptr %6, align 8, !tbaa !11
  %121 = load i64, ptr %7, align 8, !tbaa !11
  %122 = and i64 %121, -6148914691236517206
  %123 = getelementptr inbounds nuw i8, ptr %1, i64 120
  %124 = load i8, ptr %123, align 8, !tbaa !14
  %125 = zext i8 %124 to i64
  %126 = shl nuw nsw i64 %125, 1
  %127 = sub nsw i64 64, %126
  %128 = and i64 %127, 4294967294
  %129 = lshr i64 6148914691236517205, %128
  %130 = or disjoint i64 %129, %122
  %.neg.i33 = ashr i64 -6148914691236517206, %128
  %131 = add i64 %130, %.neg.i33
  %132 = lshr i64 -6148914691236517206, %128
  %133 = and i64 %131, %132
  %134 = and i64 %121, 6148914691236517205
  %135 = add nuw i64 %134, 9223372036854775807
  %136 = and i64 %129, %135
  %137 = or disjoint i64 %133, %136
  store i64 %137, ptr %7, align 8, !tbaa !11
  ret void
}